; Function Attrs: mustprogress uwtable
define hidden void @_ZNK4cvc58internal20FloatingPointLiteral3rtiERKNS0_12RoundingModeE(ptr dead_on_unwind noalias writable sret(%"class.cvc5::internal::FloatingPointLiteral") align 8 %0, ptr noundef nonnull align 8 dereferenceable(64) %1, ptr noundef nonnull align 4 dereferenceable(4) %2) local_unnamed_addr #4 align 2 personality ptr @__gxx_personality_v0 {
  %4 = alloca %"class.symfpu::unpackedFloat", align 8
  %5 = getelementptr inbounds nuw i8, ptr %1, i64 8
  call void @_ZN6symfpu15roundToIntegralIN4cvc58internal13symfpuLiteral6traitsEEENS_13unpackedFloatIT_EERKNS6_3fptERKNS6_2rmERKS7_(ptr dead_on_unwind nonnull writable sret(%"class.symfpu::unpackedFloat") align 8 %4, ptr noundef nonnull align 4 dereferenceable(8) %1, ptr noundef nonnull align 4 dereferenceable(4) %2, ptr noundef nonnull align 8 dereferenceable(56) %5)
  invoke void @_ZN4cvc58internal17FloatingPointSizeC1ERKS1_(ptr noundef nonnull align 8 dereferenceable(64) %0, ptr noundef nonnull align 4 dereferenceable(8) %1)
          to label %.noexc unwind label %38

.noexc:                                           ; preds = %3
  %6 = getelementptr inbounds nuw i8, ptr %0, i64 8
  %7 = load i8, ptr %4, align 8, !tbaa !15, !range !21, !noundef !22
  store i8 %7, ptr %6, align 8, !tbaa !15
  %8 = getelementptr inbounds nuw i8, ptr %0, i64 9
  %9 = getelementptr inbounds nuw i8, ptr %4, i64 1
  %10 = load i8, ptr %9, align 1, !tbaa !19, !range !21, !noundef !22
  store i8 %10, ptr %8, align 1, !tbaa !19
  %11 = getelementptr inbounds nuw i8, ptr %0, i64 10
  %12 = getelementptr inbounds nuw i8, ptr %4, i64 2
  %13 = load i8, ptr %12, align 2, !tbaa !20, !range !21, !noundef !22
  store i8 %13, ptr %11, align 2, !tbaa !20
  %14 = getelementptr inbounds nuw i8, ptr %0, i64 11
  %15 = getelementptr inbounds nuw i8, ptr %4, i64 3
  %16 = load i8, ptr %15, align 1, !tbaa !23, !range !21, !noundef !22
  store i8 %16, ptr %14, align 1, !tbaa !23
  %17 = getelementptr inbounds nuw i8, ptr %0, i64 16
  %18 = getelementptr inbounds nuw i8, ptr %4, i64 8
  %19 = load i32, ptr %18, align 8, !tbaa !9
  store i32 %19, ptr %17, align 8, !tbaa !9
  %20 = getelementptr inbounds nuw i8, ptr %0, i64 24
  %21 = getelementptr inbounds nuw i8, ptr %4, i64 16
  invoke void @__gmpz_init_set(ptr noundef nonnull align 8 dereferenceable(16) %20, ptr noundef nonnull align 8 dereferenceable(16) %21)
          to label %.noexc3 unwind label %38

.noexc3:                                          ; preds = %.noexc
  %22 = getelementptr inbounds nuw i8, ptr %0, i64 40
  %23 = getelementptr inbounds nuw i8, ptr %4, i64 32
  %24 = load i32, ptr %23, align 8, !tbaa !9
  store i32 %24, ptr %22, align 8, !tbaa !9
  %25 = getelementptr inbounds nuw i8, ptr %0, i64 48
  %26 = getelementptr inbounds nuw i8, ptr %4, i64 40
  invoke void @__gmpz_init_set(ptr noundef nonnull align 8 dereferenceable(16) %25, ptr noundef nonnull align 8 dereferenceable(16) %26)
          to label %_ZN4cvc58internal20FloatingPointLiteralC2ERKNS0_17FloatingPointSizeEN6symfpu13unpackedFloatINS0_13symfpuLiteral6traitsEEE.exit unwind label %27

27:                                               ; preds = %.noexc3
  %28 = landingpad { ptr, i32 }
          cleanup
  invoke void @__gmpz_clear(ptr noundef nonnull align 8 dereferenceable(16) %20)
          to label %.body unwind label %29

29:                                               ; preds = %27
  %30 = landingpad { ptr, i32 }
          catch ptr null
  %31 = extractvalue { ptr, i32 } %30, 0
  call void @__clang_call_terminate(ptr %31) #17
  unreachable

_ZN4cvc58internal20FloatingPointLiteralC2ERKNS0_17FloatingPointSizeEN6symfpu13unpackedFloatINS0_13symfpuLiteral6traitsEEE.exit: ; preds = %.noexc3
  invoke void @__gmpz_clear(ptr noundef nonnull align 8 dereferenceable(16) %26)
          to label %_ZN4cvc58internal9BitVectorD2Ev.exit.i unwind label %32

32:                                               ; preds = %_ZN4cvc58internal20FloatingPointLiteralC2ERKNS0_17FloatingPointSizeEN6symfpu13unpackedFloatINS0_13symfpuLiteral6traitsEEE.exit
  %33 = landingpad { ptr, i32 }
          catch ptr null
  %34 = extractvalue { ptr, i32 } %33, 0
  call void @__clang_call_terminate(ptr %34) #17
  unreachable

_ZN4cvc58internal9BitVectorD2Ev.exit.i:           ; preds = %_ZN4cvc58internal20FloatingPointLiteralC2ERKNS0_17FloatingPointSizeEN6symfpu13unpackedFloatINS0_13symfpuLiteral6traitsEEE.exit
  invoke void @__gmpz_clear(ptr noundef nonnull align 8 dereferenceable(16) %21)
          to label %_ZN6symfpu13unpackedFloatIN4cvc58internal13symfpuLiteral6traitsEED2Ev.exit unwind label %35

35:                                               ; preds = %_ZN4cvc58internal9BitVectorD2Ev.exit.i
  %36 = landingpad { ptr, i32 }
          catch ptr null
  %37 = extractvalue { ptr, i32 } %36, 0
  call void @__clang_call_terminate(ptr %37) #17
  unreachable

_ZN6symfpu13unpackedFloatIN4cvc58internal13symfpuLiteral6traitsEED2Ev.exit: ; preds = %_ZN4cvc58internal9BitVectorD2Ev.exit.i
  ret void

38:                                               ; preds = %.noexc, %3
  %39 = landingpad { ptr, i32 }
          cleanup
  br label %.body

.body:                                            ; preds = %27, %38
  %eh.lpad-body = phi { ptr, i32 } [ %39, %38 ], [ %28, %27 ]
  call void @_ZN6symfpu13unpackedFloatIN4cvc58internal13symfpuLiteral6traitsEED2Ev(ptr noundef nonnull align 8 dereferenceable(56) %4) #16
  resume { ptr, i32 } %eh.lpad-body
}